target datalayout = "e-m:e-p270:32:32-p271:32:32-p272:64:64-i64:64-i128:128-f80:128-n8:16:32:64-S128"
target triple = "x86_64-unknown-linux-gnu"

%struct.E1000State_st = type { %struct.PCIDevice, ptr, %struct.NICConf, %struct.MemoryRegion, %struct.MemoryRegion, [32768 x i32], [32 x i16], [64 x i16], i32, i32, %struct.e1000_tx, %struct.anon, ptr, ptr, i8, i8, i32, ptr, i32, i8, i8, %struct.e1000x_txd_props }
%struct.PCIDevice = type { %struct.DeviceState, i8, i8, ptr, ptr, ptr, ptr, ptr, i32, %struct.PCIReqIDCache, [64 x i8], [7 x %struct.PCIIORegion], %struct.AddressSpace, %struct.MemoryRegion, %struct.MemoryRegion, ptr, ptr, [3 x ptr], i8, i8, i32, i8, i32, ptr, ptr, ptr, ptr, ptr, ptr, %struct.MemoryRegion, %struct.MemoryRegion, %struct.MemoryRegion, ptr, i8, i32, i8, %struct.PCIExpressDevice, ptr, ptr, i32, i8, %struct.MemoryRegion, i32, ptr, ptr, ptr, ptr, ptr, i32 }
%struct.DeviceState = type { %struct.Object, ptr, ptr, i8, i8, i64, ptr, i32, i8, ptr, %struct.NamedGPIOListHead, %struct.NamedClockListHead, %struct.BusStateHead, i32, i32, i32, %struct.ResettableState, ptr, %struct.MemReentrancyGuard }
%struct.Object = type { ptr, ptr, ptr, i32, ptr }
%struct.NamedGPIOListHead = type { ptr }
%struct.NamedClockListHead = type { ptr }
%struct.BusStateHead = type { ptr }
%struct.ResettableState = type { i32, i8, i8 }
%struct.MemReentrancyGuard = type { i8 }
%struct.PCIReqIDCache = type { ptr, i32 }
%struct.PCIIORegion = type { i64, i64, i8, ptr, ptr }
%struct.AddressSpace = type { %struct.rcu_head, ptr, ptr, ptr, i32, i32, ptr, %union.anon, %union.anon.0 }
%struct.rcu_head = type { ptr, ptr }
%union.anon = type { %struct.QTailQLink }
%struct.QTailQLink = type { ptr, ptr }
%union.anon.0 = type { %struct.QTailQLink }
%struct.PCIExpressDevice = type { i8, i8, i8, i16, %struct.PCIEAERLog, i16, i16, i16, %struct.PCIESriovPF, %struct.PCIESriovVF }
%struct.PCIEAERLog = type { i16, i16, ptr }
%struct.PCIESriovPF = type { i16, [7 x i8], ptr, ptr }
%struct.PCIESriovVF = type { ptr, i16 }
%struct.NICConf = type { %struct.MACAddr, %struct.NICPeers, i32 }
%struct.MACAddr = type { [6 x i8] }
%struct.NICPeers = type { [1024 x ptr], i32 }
%struct.MemoryRegion = type { %struct.Object, i8, i8, i8, i8, i8, i8, i8, i8, i8, i8, ptr, ptr, ptr, ptr, ptr, ptr, i32, i128, i64, ptr, i64, i8, i8, i8, i8, i8, ptr, i64, i32, %union.anon.1, %union.anon.2, %union.anon.3, ptr, i32, ptr, ptr, i8 }
%union.anon.1 = type { %struct.QTailQLink }
%union.anon.2 = type { %struct.QTailQLink }
%union.anon.3 = type { %struct.QTailQLink }
%struct.e1000_tx = type { [256 x i8], [4 x i8], [4 x i8], [65536 x i8], i16, i8, i8, i8, %struct.e1000x_txd_props, %struct.e1000x_txd_props, i16, i8 }
%struct.anon = type { i32, i16, i16, i16, i32 }
%struct.e1000x_txd_props = type { i8, i8, i16, i8, i8, i16, i32, i8, i16, i8, i8, i8 }

; Function Attrs: nounwind sspstrong uwtable
define internal void @set_eecd(ptr noundef %s, i32 noundef %index, i32 noundef %val) #0 {
entry:
  %s.addr = alloca ptr, align 8
  %index.addr = alloca i32, align 4
  %val.addr = alloca i32, align 4
  %oldval = alloca i32, align 4
  store ptr %s, ptr %s.addr, align 8
  store i32 %index, ptr %index.addr, align 4
  store i32 %val, ptr %val.addr, align 4
  %0 = load ptr, ptr %s.addr, align 8
  %eecd_state = getelementptr inbounds %struct.E1000State_st, ptr %0, i32 0, i32 11
  %old_eecd = getelementptr inbounds %struct.anon, ptr %eecd_state, i32 0, i32 4
  %1 = load i32, ptr %old_eecd, align 4
  store i32 %1, ptr %oldval, align 4
  %2 = load i32, ptr %val.addr, align 4
  %and = and i32 %2, 119
  %3 = load ptr, ptr %s.addr, align 8
  %eecd_state1 = getelementptr inbounds %struct.E1000State_st, ptr %3, i32 0, i32 11
  %old_eecd2 = getelementptr inbounds %struct.anon, ptr %eecd_state1, i32 0, i32 4
  store i32 %and, ptr %old_eecd2, align 4
  %4 = load i32, ptr %val.addr, align 4
  %and3 = and i32 2, %4
  %tobool = icmp ne i32 %and3, 0
  br i1 %tobool, label %if.end, label %if.then

if.then:                                          ; preds = %entry
  br label %do.end

if.end:                                           ; preds = %entry
  %5 = load i32, ptr %val.addr, align 4
  %6 = load i32, ptr %oldval, align 4
  %xor = xor i32 %5, %6
  %and4 = and i32 2, %xor
  %tobool5 = icmp ne i32 %and4, 0
  br i1 %tobool5, label %if.then6, label %if.end11

if.then6:                                         ; preds = %if.end
  %7 = load ptr, ptr %s.addr, align 8
  %eecd_state7 = getelementptr inbounds %struct.E1000State_st, ptr %7, i32 0, i32 11
  %val_in = getelementptr inbounds %struct.anon, ptr %eecd_state7, i32 0, i32 0
  store i32 0, ptr %val_in, align 4
  %8 = load ptr, ptr %s.addr, align 8
  %eecd_state8 = getelementptr inbounds %struct.E1000State_st, ptr %8, i32 0, i32 11
  %bitnum_in = getelementptr inbounds %struct.anon, ptr %eecd_state8, i32 0, i32 1
  store i16 0, ptr %bitnum_in, align 4
  %9 = load ptr, ptr %s.addr, align 8
  %eecd_state9 = getelementptr inbounds %struct.E1000State_st, ptr %9, i32 0, i32 11
  %bitnum_out = getelementptr inbounds %struct.anon, ptr %eecd_state9, i32 0, i32 2
  store i16 0, ptr %bitnum_out, align 2
  %10 = load ptr, ptr %s.addr, align 8
  %eecd_state10 = getelementptr inbounds %struct.E1000State_st, ptr %10, i32 0, i32 11
  %reading = getelementptr inbounds %struct.anon, ptr %eecd_state10, i32 0, i32 3
  store i16 0, ptr %reading, align 4
  br label %if.end11

if.end11:                                         ; preds = %if.then6, %if.end
  %11 = load i32, ptr %val.addr, align 4
  %12 = load i32, ptr %oldval, align 4
  %xor12 = xor i32 %11, %12
  %and13 = and i32 1, %xor12
  %tobool14 = icmp ne i32 %and13, 0
  br i1 %tobool14, label %if.end16, label %if.then15

if.then15:                                        ; preds = %if.end11
  br label %do.end

if.end16:                                         ; preds = %if.end11
  %13 = load i32, ptr %val.addr, align 4
  %and17 = and i32 1, %13
  %tobool18 = icmp ne i32 %and17, 0
  br i1 %tobool18, label %if.end22, label %if.then19

if.then19:                                        ; preds = %if.end16
  %14 = load ptr, ptr %s.addr, align 8
  %eecd_state20 = getelementptr inbounds %struct.E1000State_st, ptr %14, i32 0, i32 11
  %bitnum_out21 = getelementptr inbounds %struct.anon, ptr %eecd_state20, i32 0, i32 2
  %15 = load i16, ptr %bitnum_out21, align 2
  %inc = add i16 %15, 1
  store i16 %inc, ptr %bitnum_out21, align 2
  br label %do.end

if.end22:                                         ; preds = %if.end16
  %16 = load ptr, ptr %s.addr, align 8
  %eecd_state23 = getelementptr inbounds %struct.E1000State_st, ptr %16, i32 0, i32 11
  %val_in24 = getelementptr inbounds %struct.anon, ptr %eecd_state23, i32 0, i32 0
  %17 = load i32, ptr %val_in24, align 4
  %shl = shl i32 %17, 1
  store i32 %shl, ptr %val_in24, align 4
  %18 = load i32, ptr %val.addr, align 4
  %and25 = and i32 %18, 4
  %tobool26 = icmp ne i32 %and25, 0
  br i1 %tobool26, label %if.then27, label %if.end30

if.then27:                                        ; preds = %if.end22
  %19 = load ptr, ptr %s.addr, align 8
  %eecd_state28 = getelementptr inbounds %struct.E1000State_st, ptr %19, i32 0, i32 11
  %val_in29 = getelementptr inbounds %struct.anon, ptr %eecd_state28, i32 0, i32 0
  %20 = load i32, ptr %val_in29, align 4
  %or = or i32 %20, 1
  store i32 %or, ptr %val_in29, align 4
  br label %if.end30

if.end30:                                         ; preds = %if.then27, %if.end22
  %21 = load ptr, ptr %s.addr, align 8
  %eecd_state31 = getelementptr inbounds %struct.E1000State_st, ptr %21, i32 0, i32 11
  %bitnum_in32 = getelementptr inbounds %struct.anon, ptr %eecd_state31, i32 0, i32 1
  %22 = load i16, ptr %bitnum_in32, align 4
  %inc33 = add i16 %22, 1
  store i16 %inc33, ptr %bitnum_in32, align 4
  %conv = zext i16 %inc33 to i32
  %cmp = icmp eq i32 %conv, 9
  br i1 %cmp, label %land.lhs.true, label %if.end54

land.lhs.true:                                    ; preds = %if.end30
  %23 = load ptr, ptr %s.addr, align 8
  %eecd_state35 = getelementptr inbounds %struct.E1000State_st, ptr %23, i32 0, i32 11
  %reading36 = getelementptr inbounds %struct.anon, ptr %eecd_state35, i32 0, i32 3
  %24 = load i16, ptr %reading36, align 4
  %tobool37 = icmp ne i16 %24, 0
  br i1 %tobool37, label %if.end54, label %if.then38

if.then38:                                        ; preds = %land.lhs.true
  %25 = load ptr, ptr %s.addr, align 8
  %eecd_state39 = getelementptr inbounds %struct.E1000State_st, ptr %25, i32 0, i32 11
  %val_in40 = getelementptr inbounds %struct.anon, ptr %eecd_state39, i32 0, i32 0
  %26 = load i32, ptr %val_in40, align 4
  %and41 = and i32 %26, 63
  %shl42 = shl i32 %and41, 4
  %sub = sub i32 %shl42, 1
  %conv43 = trunc i32 %sub to i16
  %27 = load ptr, ptr %s.addr, align 8
  %eecd_state44 = getelementptr inbounds %struct.E1000State_st, ptr %27, i32 0, i32 11
  %bitnum_out45 = getelementptr inbounds %struct.anon, ptr %eecd_state44, i32 0, i32 2
  store i16 %conv43, ptr %bitnum_out45, align 2
  %28 = load ptr, ptr %s.addr, align 8
  %eecd_state46 = getelementptr inbounds %struct.E1000State_st, ptr %28, i32 0, i32 11
  %val_in47 = getelementptr inbounds %struct.anon, ptr %eecd_state46, i32 0, i32 0
  %29 = load i32, ptr %val_in47, align 4
  %shr = lshr i32 %29, 6
  %and48 = and i32 %shr, 7
  %cmp49 = icmp eq i32 %and48, 6
  %conv50 = zext i1 %cmp49 to i32
  %conv51 = trunc i32 %conv50 to i16
  %30 = load ptr, ptr %s.addr, align 8
  %eecd_state52 = getelementptr inbounds %struct.E1000State_st, ptr %30, i32 0, i32 11
  %reading53 = getelementptr inbounds %struct.anon, ptr %eecd_state52, i32 0, i32 3
  store i16 %conv51, ptr %reading53, align 4
  br label %if.end54

if.end54:                                         ; preds = %if.then38, %land.lhs.true, %if.end30
  br label %do.body

do.body:                                          ; preds = %if.end54
  br label %do.end

do.end:                                           ; preds = %do.body, %if.then19, %if.then15, %if.then
  ret void
}