; Function Attrs: mustprogress nofree norecurse nosync nounwind sspstrong willreturn memory(argmem: readwrite) uwtable
define internal void @set_eecd(ptr noundef captures(none) %s, i32 %index, i32 noundef %val) #5 {
entry:
  %eecd_state = getelementptr inbounds nuw i8, ptr %s, i64 208500
  %old_eecd = getelementptr inbounds nuw i8, ptr %s, i64 208512
  %0 = load i32, ptr %old_eecd, align 4
  %and = and i32 %val, 119
  store i32 %and, ptr %old_eecd, align 4
  %and3 = and i32 %val, 2
  %tobool.not = icmp eq i32 %and3, 0
  br i1 %tobool.not, label %do.end, label %if.end

if.end:                                           ; preds = %entry
  %xor = xor i32 %0, %val
  %and4 = and i32 %xor, 2
  %tobool5.not = icmp eq i32 %and4, 0
  br i1 %tobool5.not, label %if.end11, label %if.then6

if.then6:                                         ; preds = %if.end
  tail call void @llvm.memset.p0.i64(ptr noundef nonnull align 4 dereferenceable(10) %eecd_state, i8 0, i64 10, i1 false)
  br label %if.end11

if.end11:                                         ; preds = %if.then6, %if.end
  %and13 = and i32 %xor, 1
  %tobool14.not = icmp eq i32 %and13, 0
  br i1 %tobool14.not, label %do.end, label %if.end16

if.end16:                                         ; preds = %if.end11
  %and17 = and i32 %val, 1
  %tobool18.not = icmp eq i32 %and17, 0
  br i1 %tobool18.not, label %if.then19, label %if.end22

if.then19:                                        ; preds = %if.end16
  %bitnum_out21 = getelementptr inbounds nuw i8, ptr %s, i64 208506
  %1 = load i16, ptr %bitnum_out21, align 2
  %inc = add i16 %1, 1
  store i16 %inc, ptr %bitnum_out21, align 2
  br label %do.end

if.end22:                                         ; preds = %if.end16
  %2 = load i32, ptr %eecd_state, align 4
  %shl = shl i32 %2, 1
  %and25 = lshr i32 %val, 2
  %3 = and i32 %and25, 1
  %spec.select = or disjoint i32 %shl, %3
  store i32 %spec.select, ptr %eecd_state, align 4
  %bitnum_in32 = getelementptr inbounds nuw i8, ptr %s, i64 208504
  %4 = load i16, ptr %bitnum_in32, align 4
  %inc33 = add i16 %4, 1
  store i16 %inc33, ptr %bitnum_in32, align 4
  %cmp = icmp eq i16 %inc33, 9
  br i1 %cmp, label %land.lhs.true, label %do.end

land.lhs.true:                                    ; preds = %if.end22
  %reading36 = getelementptr inbounds nuw i8, ptr %s, i64 208508
  %5 = load i16, ptr %reading36, align 4
  %tobool37.not = icmp eq i16 %5, 0
  br i1 %tobool37.not, label %if.then38, label %do.end

if.then38:                                        ; preds = %land.lhs.true
  %.tr = trunc i32 %spec.select to i16
  %6 = shl i16 %.tr, 4
  %7 = and i16 %6, 1008
  %conv43 = add nsw i16 %7, -1
  %bitnum_out45 = getelementptr inbounds nuw i8, ptr %s, i64 208506
  store i16 %conv43, ptr %bitnum_out45, align 2
  %8 = and i32 %2, 224
  %cmp49 = icmp eq i32 %8, 192
  %conv51 = zext i1 %cmp49 to i16
  store i16 %conv51, ptr %reading36, align 4
  br label %do.end

do.end:                                           ; preds = %if.then38, %land.lhs.true, %if.end22, %if.end11, %entry, %if.then19
  ret void
}